CCS PCM C Compiler, Version 4.114, 93460303               12-oct-17 13:37

               Filename: C:\Users\Usuario\Desktop\40leds\Ejemplo04.lst

               ROM used: 795 words (10%)
                         Largest free fragment is 2048
               RAM used: 7 (2%) at main() level
                         8 (2%) worst case
               Stack:    1 locations

*
0000:  MOVLW  00
0001:  MOVWF  0A
0002:  GOTO   011
0003:  NOP
.................... #include <16f877a.h> 
.................... //////// Standard Header file for the PIC16F877A device //////////////// 
.................... #device PIC16F877A 
.................... #list 
....................  
.................... #fuses xt,nowdt 
.................... #use delay(clock=1000000) 
0004:  MOVLW  22
0005:  MOVWF  04
0006:  BCF    03.7
0007:  MOVF   00,W
0008:  BTFSC  03.2
0009:  GOTO   010
000A:  MOVLW  52
000B:  MOVWF  77
000C:  DECFSZ 77,F
000D:  GOTO   00C
000E:  DECFSZ 00,F
000F:  GOTO   00A
0010:  RETURN
....................  
.................... //Declaracion de variables globales 
.................... #define Led pin_a0//Nombra a pin_b0 como Led 
.................... #define Led1 pin_a1//Nombra a pin_b0 como Led 
.................... #define Led2 pin_a2//Nombra a pin_b0 como Led 
.................... #define Led3 pin_a3//Nombra a pin_b0 como Led 
.................... #define Led4 pin_a4//Nombra a pin_b0 como Ledv 
.................... #define Led5 pin_a5//Nombra a pin_b0 como Led 
....................  
.................... #define Led6 pin_b0//Nombra a pin_b0 como Led 
.................... #define Led7 pin_b1//Nombra a pin_b0 como Led 
.................... #define Led8 pin_b2//Nombra a pin_b0 como Led 
.................... #define Led9 pin_b3//Nombra a pin_b0 como Led 
.................... #define Led10 pin_b4//Nombra a pin_b0 como Led 
.................... #define Led11 pin_b5//Nombra a pin_b0 como Led 
.................... #define Led12 pin_b6//Nombra a pin_b0 como Led 
.................... #define Led13 pin_b7//Nombra a pin_b0 como Led 
....................  
.................... #define Led14 pin_c0//Nombra a pin_b0 como Led 
.................... #define Led15 pin_c1//Nombra a pin_b0 como Led 
.................... #define Led16 pin_c2//Nombra a pin_b0 como Led 
.................... #define Led17 pin_c3//Nombra a pin_b0 como Led 
.................... #define Led18 pin_c4//Nombra a pin_b0 como Led 
.................... #define Led19 pin_c5//Nombra a pin_b0 como Led 
.................... #define Led20 pin_c6//Nombra a pin_b0 como Led 
.................... #define Led21 pin_c7//Nombra a pin_b0 como Led 
....................  
.................... #define Led22 pin_d0//Nombra a pin_b0 como Led 
.................... #define Led23 pin_d1//Nombra a pin_b0 como Led 
.................... #define Led24 pin_d2//Nombra a pin_b0 como Led 
.................... #define Led25 pin_d3//Nombra a pin_b0 como Led 
.................... #define Led26 pin_d4//Nombra a pin_b0 como Led 
.................... #define Led27 pin_d5//Nombra a pin_b0 como Led 
.................... #define Led28 pin_d6//Nombra a pin_b0 como Led 
.................... #define Led29 pin_d7//Nombra a pin_b0 como Led 
....................  
.................... #define Led30 pin_e0//Nombra a pin_b0 como Led 
.................... #define Led31 pin_e1//Nombra a pin_b0 como Led 
.................... #define Led32 pin_e2//Nombra a pin_b0 como Led 
....................  
.................... #define Retardo delay_ms(500)//Nombra a delay_ms() como Retardo 
....................  
....................  
.................... //Programa principal 
.................... void main(){ 
0011:  CLRF   04
0012:  BCF    03.7
0013:  MOVLW  1F
0014:  ANDWF  03,F
0015:  MOVLW  FF
0016:  MOVWF  20
0017:  BSF    03.5
0018:  BSF    1F.0
0019:  BSF    1F.1
001A:  BSF    1F.2
001B:  BCF    1F.3
001C:  MOVLW  07
001D:  MOVWF  1C
....................  
.................... //Configuracion de puertos E/S  
.................... SET_TRIS_B(0x00);//Configura el puerto B: 0=Salida; 1=Entrada 
001E:  MOVLW  00
001F:  MOVWF  06
.................... output_b(0x00); //Limpia el registro del puerto 
0020:  CLRF   06
0021:  BCF    03.5
0022:  CLRF   06
....................  
.................... //Estructura Programa principal 
.................... inicio://Etiqueta de retorno 
.................... output_high(led);//Pone en alto a led 
0023:  BSF    03.5
0024:  BCF    05.0
0025:  BCF    03.5
0026:  BSF    05.0
.................... retardo;//Demora 
0027:  MOVLW  02
0028:  MOVWF  21
0029:  MOVLW  FA
002A:  MOVWF  22
002B:  CALL   004
002C:  DECFSZ 21,F
002D:  GOTO   029
.................... output_high(led1);//Pone en alto a led 
002E:  BSF    03.5
002F:  BCF    05.1
0030:  BCF    03.5
0031:  BSF    05.1
.................... retardo;//Demora 
0032:  MOVLW  02
0033:  MOVWF  21
0034:  MOVLW  FA
0035:  MOVWF  22
0036:  CALL   004
0037:  DECFSZ 21,F
0038:  GOTO   034
.................... output_high(led2);//Pone en alto a led 
0039:  BSF    03.5
003A:  BCF    05.2
003B:  BCF    03.5
003C:  BSF    05.2
.................... retardo;//Demora 
003D:  MOVLW  02
003E:  MOVWF  21
003F:  MOVLW  FA
0040:  MOVWF  22
0041:  CALL   004
0042:  DECFSZ 21,F
0043:  GOTO   03F
.................... output_high(led3);//Pone en alto a led 
0044:  BSF    03.5
0045:  BCF    05.3
0046:  BCF    03.5
0047:  BSF    05.3
.................... retardo;//Demora 
0048:  MOVLW  02
0049:  MOVWF  21
004A:  MOVLW  FA
004B:  MOVWF  22
004C:  CALL   004
004D:  DECFSZ 21,F
004E:  GOTO   04A
.................... output_high(led4);//Pone en alto a led 
004F:  BSF    03.5
0050:  BCF    05.4
0051:  BCF    03.5
0052:  BSF    05.4
.................... retardo;//Demora 
0053:  MOVLW  02
0054:  MOVWF  21
0055:  MOVLW  FA
0056:  MOVWF  22
0057:  CALL   004
0058:  DECFSZ 21,F
0059:  GOTO   055
.................... output_high(led5);//Pone en alto a led 
005A:  BSF    03.5
005B:  BCF    05.5
005C:  BCF    03.5
005D:  BSF    05.5
.................... retardo;//Demora 
005E:  MOVLW  02
005F:  MOVWF  21
0060:  MOVLW  FA
0061:  MOVWF  22
0062:  CALL   004
0063:  DECFSZ 21,F
0064:  GOTO   060
.................... output_high(led6);//Pone en alto a led 
0065:  BSF    03.5
0066:  BCF    06.0
0067:  BCF    03.5
0068:  BSF    06.0
.................... retardo;//Demora 
0069:  MOVLW  02
006A:  MOVWF  21
006B:  MOVLW  FA
006C:  MOVWF  22
006D:  CALL   004
006E:  DECFSZ 21,F
006F:  GOTO   06B
.................... output_high(led7);//Pone en alto a led 
0070:  BSF    03.5
0071:  BCF    06.1
0072:  BCF    03.5
0073:  BSF    06.1
.................... retardo;//Demora 
0074:  MOVLW  02
0075:  MOVWF  21
0076:  MOVLW  FA
0077:  MOVWF  22
0078:  CALL   004
0079:  DECFSZ 21,F
007A:  GOTO   076
.................... output_high(led8);//Pone en alto a led 
007B:  BSF    03.5
007C:  BCF    06.2
007D:  BCF    03.5
007E:  BSF    06.2
.................... retardo;//Demora 
007F:  MOVLW  02
0080:  MOVWF  21
0081:  MOVLW  FA
0082:  MOVWF  22
0083:  CALL   004
0084:  DECFSZ 21,F
0085:  GOTO   081
.................... output_high(led9);//Pone en alto a led 
0086:  BSF    03.5
0087:  BCF    06.3
0088:  BCF    03.5
0089:  BSF    06.3
.................... retardo;//Demora 
008A:  MOVLW  02
008B:  MOVWF  21
008C:  MOVLW  FA
008D:  MOVWF  22
008E:  CALL   004
008F:  DECFSZ 21,F
0090:  GOTO   08C
.................... output_high(led10);//Pone en alto a led 
0091:  BSF    03.5
0092:  BCF    06.4
0093:  BCF    03.5
0094:  BSF    06.4
.................... retardo;//Demora 
0095:  MOVLW  02
0096:  MOVWF  21
0097:  MOVLW  FA
0098:  MOVWF  22
0099:  CALL   004
009A:  DECFSZ 21,F
009B:  GOTO   097
.................... output_high(led11);//Pone en alto a led 
009C:  BSF    03.5
009D:  BCF    06.5
009E:  BCF    03.5
009F:  BSF    06.5
.................... retardo;//Demora 
00A0:  MOVLW  02
00A1:  MOVWF  21
00A2:  MOVLW  FA
00A3:  MOVWF  22
00A4:  CALL   004
00A5:  DECFSZ 21,F
00A6:  GOTO   0A2
.................... output_high(led12);//Pone en alto a led 
00A7:  BSF    03.5
00A8:  BCF    06.6
00A9:  BCF    03.5
00AA:  BSF    06.6
.................... retardo;//Demora 
00AB:  MOVLW  02
00AC:  MOVWF  21
00AD:  MOVLW  FA
00AE:  MOVWF  22
00AF:  CALL   004
00B0:  DECFSZ 21,F
00B1:  GOTO   0AD
.................... output_high(led13);//Pone en alto a led 
00B2:  BSF    03.5
00B3:  BCF    06.7
00B4:  BCF    03.5
00B5:  BSF    06.7
.................... retardo;//Demora 
00B6:  MOVLW  02
00B7:  MOVWF  21
00B8:  MOVLW  FA
00B9:  MOVWF  22
00BA:  CALL   004
00BB:  DECFSZ 21,F
00BC:  GOTO   0B8
.................... output_high(led14);//Pone en alto a led 
00BD:  BCF    20.0
00BE:  MOVF   20,W
00BF:  BSF    03.5
00C0:  MOVWF  07
00C1:  BCF    03.5
00C2:  BSF    07.0
.................... retardo;//Demora 
00C3:  MOVLW  02
00C4:  MOVWF  21
00C5:  MOVLW  FA
00C6:  MOVWF  22
00C7:  CALL   004
00C8:  DECFSZ 21,F
00C9:  GOTO   0C5
.................... output_high(led15);//Pone en alto a led 
00CA:  BCF    20.1
00CB:  MOVF   20,W
00CC:  BSF    03.5
00CD:  MOVWF  07
00CE:  BCF    03.5
00CF:  BSF    07.1
.................... retardo;//Demora 
00D0:  MOVLW  02
00D1:  MOVWF  21
00D2:  MOVLW  FA
00D3:  MOVWF  22
00D4:  CALL   004
00D5:  DECFSZ 21,F
00D6:  GOTO   0D2
.................... output_high(led16);//Pone en alto a led 
00D7:  BCF    20.2
00D8:  MOVF   20,W
00D9:  BSF    03.5
00DA:  MOVWF  07
00DB:  BCF    03.5
00DC:  BSF    07.2
.................... retardo;//Demora 
00DD:  MOVLW  02
00DE:  MOVWF  21
00DF:  MOVLW  FA
00E0:  MOVWF  22
00E1:  CALL   004
00E2:  DECFSZ 21,F
00E3:  GOTO   0DF
.................... output_high(led17);//Pone en alto a led 
00E4:  BCF    20.3
00E5:  MOVF   20,W
00E6:  BSF    03.5
00E7:  MOVWF  07
00E8:  BCF    03.5
00E9:  BSF    07.3
.................... retardo;//Demora 
00EA:  MOVLW  02
00EB:  MOVWF  21
00EC:  MOVLW  FA
00ED:  MOVWF  22
00EE:  CALL   004
00EF:  DECFSZ 21,F
00F0:  GOTO   0EC
.................... output_high(led18);//Pone en alto a led 
00F1:  BCF    20.4
00F2:  MOVF   20,W
00F3:  BSF    03.5
00F4:  MOVWF  07
00F5:  BCF    03.5
00F6:  BSF    07.4
.................... retardo;//Demora 
00F7:  MOVLW  02
00F8:  MOVWF  21
00F9:  MOVLW  FA
00FA:  MOVWF  22
00FB:  CALL   004
00FC:  DECFSZ 21,F
00FD:  GOTO   0F9
.................... output_high(led19);//Pone en alto a led 
00FE:  BCF    20.5
00FF:  MOVF   20,W
0100:  BSF    03.5
0101:  MOVWF  07
0102:  BCF    03.5
0103:  BSF    07.5
.................... retardo;//Demora 
0104:  MOVLW  02
0105:  MOVWF  21
0106:  MOVLW  FA
0107:  MOVWF  22
0108:  CALL   004
0109:  DECFSZ 21,F
010A:  GOTO   106
.................... output_high(led20);//Pone en alto a led 
010B:  BCF    20.6
010C:  MOVF   20,W
010D:  BSF    03.5
010E:  MOVWF  07
010F:  BCF    03.5
0110:  BSF    07.6
.................... retardo;//Demora 
0111:  MOVLW  02
0112:  MOVWF  21
0113:  MOVLW  FA
0114:  MOVWF  22
0115:  CALL   004
0116:  DECFSZ 21,F
0117:  GOTO   113
.................... output_high(led21);//Pone en alto a led 
0118:  BCF    20.7
0119:  MOVF   20,W
011A:  BSF    03.5
011B:  MOVWF  07
011C:  BCF    03.5
011D:  BSF    07.7
.................... retardo;//Demora 
011E:  MOVLW  02
011F:  MOVWF  21
0120:  MOVLW  FA
0121:  MOVWF  22
0122:  CALL   004
0123:  DECFSZ 21,F
0124:  GOTO   120
.................... output_high(led22);//Pone en alto a led 
0125:  BSF    03.5
0126:  BCF    08.0
0127:  BCF    03.5
0128:  BSF    08.0
.................... retardo;//Demora 
0129:  MOVLW  02
012A:  MOVWF  21
012B:  MOVLW  FA
012C:  MOVWF  22
012D:  CALL   004
012E:  DECFSZ 21,F
012F:  GOTO   12B
.................... output_high(led23);//Pone en alto a led 
0130:  BSF    03.5
0131:  BCF    08.1
0132:  BCF    03.5
0133:  BSF    08.1
.................... retardo;//Demora 
0134:  MOVLW  02
0135:  MOVWF  21
0136:  MOVLW  FA
0137:  MOVWF  22
0138:  CALL   004
0139:  DECFSZ 21,F
013A:  GOTO   136
.................... output_high(led24);//Pone en alto a led 
013B:  BSF    03.5
013C:  BCF    08.2
013D:  BCF    03.5
013E:  BSF    08.2
.................... retardo;//Demora 
013F:  MOVLW  02
0140:  MOVWF  21
0141:  MOVLW  FA
0142:  MOVWF  22
0143:  CALL   004
0144:  DECFSZ 21,F
0145:  GOTO   141
.................... output_high(led25);//Pone en alto a led 
0146:  BSF    03.5
0147:  BCF    08.3
0148:  BCF    03.5
0149:  BSF    08.3
.................... retardo;//Demora 
014A:  MOVLW  02
014B:  MOVWF  21
014C:  MOVLW  FA
014D:  MOVWF  22
014E:  CALL   004
014F:  DECFSZ 21,F
0150:  GOTO   14C
.................... output_high(led26);//Pone en alto a led 
0151:  BSF    03.5
0152:  BCF    08.4
0153:  BCF    03.5
0154:  BSF    08.4
.................... retardo;//Demora 
0155:  MOVLW  02
0156:  MOVWF  21
0157:  MOVLW  FA
0158:  MOVWF  22
0159:  CALL   004
015A:  DECFSZ 21,F
015B:  GOTO   157
.................... output_high(led27);//Pone en alto a led 
015C:  BSF    03.5
015D:  BCF    08.5
015E:  BCF    03.5
015F:  BSF    08.5
.................... retardo;//Demora 
0160:  MOVLW  02
0161:  MOVWF  21
0162:  MOVLW  FA
0163:  MOVWF  22
0164:  CALL   004
0165:  DECFSZ 21,F
0166:  GOTO   162
.................... output_high(led28);//Pone en alto a led 
0167:  BSF    03.5
0168:  BCF    08.6
0169:  BCF    03.5
016A:  BSF    08.6
.................... retardo;//Demora 
016B:  MOVLW  02
016C:  MOVWF  21
016D:  MOVLW  FA
016E:  MOVWF  22
016F:  CALL   004
0170:  DECFSZ 21,F
0171:  GOTO   16D
.................... output_high(led29);//Pone en alto a led 
0172:  BSF    03.5
0173:  BCF    08.7
0174:  BCF    03.5
0175:  BSF    08.7
.................... retardo;//Demora 
0176:  MOVLW  02
0177:  MOVWF  21
0178:  MOVLW  FA
0179:  MOVWF  22
017A:  CALL   004
017B:  DECFSZ 21,F
017C:  GOTO   178
.................... output_high(led30);//Pone en alto a led 
017D:  BSF    03.5
017E:  BCF    09.0
017F:  BCF    03.5
0180:  BSF    09.0
.................... retardo;//Demora 
0181:  MOVLW  02
0182:  MOVWF  21
0183:  MOVLW  FA
0184:  MOVWF  22
0185:  CALL   004
0186:  DECFSZ 21,F
0187:  GOTO   183
.................... output_high(led31);//Pone en alto a led 
0188:  BSF    03.5
0189:  BCF    09.1
018A:  BCF    03.5
018B:  BSF    09.1
.................... retardo;//Demora 
018C:  MOVLW  02
018D:  MOVWF  21
018E:  MOVLW  FA
018F:  MOVWF  22
0190:  CALL   004
0191:  DECFSZ 21,F
0192:  GOTO   18E
.................... output_high(led32);//Pone en alto a led 
0193:  BSF    03.5
0194:  BCF    09.2
0195:  BCF    03.5
0196:  BSF    09.2
.................... retardo;//Demora 
0197:  MOVLW  02
0198:  MOVWF  21
0199:  MOVLW  FA
019A:  MOVWF  22
019B:  CALL   004
019C:  DECFSZ 21,F
019D:  GOTO   199
....................  
.................... output_low(led);//Pone en bajo a led 
019E:  BSF    03.5
019F:  BCF    05.0
01A0:  BCF    03.5
01A1:  BCF    05.0
.................... retardo;//Demora 
01A2:  MOVLW  02
01A3:  MOVWF  21
01A4:  MOVLW  FA
01A5:  MOVWF  22
01A6:  CALL   004
01A7:  DECFSZ 21,F
01A8:  GOTO   1A4
.................... output_low(led1);//Pone en bajo a led 
01A9:  BSF    03.5
01AA:  BCF    05.1
01AB:  BCF    03.5
01AC:  BCF    05.1
.................... retardo;//Demora 
01AD:  MOVLW  02
01AE:  MOVWF  21
01AF:  MOVLW  FA
01B0:  MOVWF  22
01B1:  CALL   004
01B2:  DECFSZ 21,F
01B3:  GOTO   1AF
.................... output_low(led2);//Pone en bajo a led 
01B4:  BSF    03.5
01B5:  BCF    05.2
01B6:  BCF    03.5
01B7:  BCF    05.2
.................... retardo;//Demora 
01B8:  MOVLW  02
01B9:  MOVWF  21
01BA:  MOVLW  FA
01BB:  MOVWF  22
01BC:  CALL   004
01BD:  DECFSZ 21,F
01BE:  GOTO   1BA
.................... output_low(led3);//Pone en bajo a led 
01BF:  BSF    03.5
01C0:  BCF    05.3
01C1:  BCF    03.5
01C2:  BCF    05.3
.................... retardo;//Demora 
01C3:  MOVLW  02
01C4:  MOVWF  21
01C5:  MOVLW  FA
01C6:  MOVWF  22
01C7:  CALL   004
01C8:  DECFSZ 21,F
01C9:  GOTO   1C5
.................... output_low(led4);//Pone en bajo a led 
01CA:  BSF    03.5
01CB:  BCF    05.4
01CC:  BCF    03.5
01CD:  BCF    05.4
.................... retardo;//Demora 
01CE:  MOVLW  02
01CF:  MOVWF  21
01D0:  MOVLW  FA
01D1:  MOVWF  22
01D2:  CALL   004
01D3:  DECFSZ 21,F
01D4:  GOTO   1D0
.................... output_low(led5);//Pone en bajo a led 
01D5:  BSF    03.5
01D6:  BCF    05.5
01D7:  BCF    03.5
01D8:  BCF    05.5
.................... retardo;//Demora 
01D9:  MOVLW  02
01DA:  MOVWF  21
01DB:  MOVLW  FA
01DC:  MOVWF  22
01DD:  CALL   004
01DE:  DECFSZ 21,F
01DF:  GOTO   1DB
.................... output_low(led6);//Pone en bajo a led 
01E0:  BSF    03.5
01E1:  BCF    06.0
01E2:  BCF    03.5
01E3:  BCF    06.0
.................... retardo;//Demora 
01E4:  MOVLW  02
01E5:  MOVWF  21
01E6:  MOVLW  FA
01E7:  MOVWF  22
01E8:  CALL   004
01E9:  DECFSZ 21,F
01EA:  GOTO   1E6
.................... output_low(led7);//Pone en bajo a led 
01EB:  BSF    03.5
01EC:  BCF    06.1
01ED:  BCF    03.5
01EE:  BCF    06.1
.................... retardo;//Demora 
01EF:  MOVLW  02
01F0:  MOVWF  21
01F1:  MOVLW  FA
01F2:  MOVWF  22
01F3:  CALL   004
01F4:  DECFSZ 21,F
01F5:  GOTO   1F1
.................... output_low(led8);//Pone en bajo a led 
01F6:  BSF    03.5
01F7:  BCF    06.2
01F8:  BCF    03.5
01F9:  BCF    06.2
.................... retardo;//Demora 
01FA:  MOVLW  02
01FB:  MOVWF  21
01FC:  MOVLW  FA
01FD:  MOVWF  22
01FE:  CALL   004
01FF:  DECFSZ 21,F
0200:  GOTO   1FC
.................... output_low(led9);//Pone en bajo a led 
0201:  BSF    03.5
0202:  BCF    06.3
0203:  BCF    03.5
0204:  BCF    06.3
.................... retardo;//Demora 
0205:  MOVLW  02
0206:  MOVWF  21
0207:  MOVLW  FA
0208:  MOVWF  22
0209:  CALL   004
020A:  DECFSZ 21,F
020B:  GOTO   207
.................... output_low(led10);//Pone en bajo a led 
020C:  BSF    03.5
020D:  BCF    06.4
020E:  BCF    03.5
020F:  BCF    06.4
.................... retardo;//Demora 
0210:  MOVLW  02
0211:  MOVWF  21
0212:  MOVLW  FA
0213:  MOVWF  22
0214:  CALL   004
0215:  DECFSZ 21,F
0216:  GOTO   212
.................... output_low(led11);//Pone en bajo a led 
0217:  BSF    03.5
0218:  BCF    06.5
0219:  BCF    03.5
021A:  BCF    06.5
.................... retardo;//Demora 
021B:  MOVLW  02
021C:  MOVWF  21
021D:  MOVLW  FA
021E:  MOVWF  22
021F:  CALL   004
0220:  DECFSZ 21,F
0221:  GOTO   21D
.................... output_low(led12);//Pone en bajo a led 
0222:  BSF    03.5
0223:  BCF    06.6
0224:  BCF    03.5
0225:  BCF    06.6
.................... retardo;//Demora 
0226:  MOVLW  02
0227:  MOVWF  21
0228:  MOVLW  FA
0229:  MOVWF  22
022A:  CALL   004
022B:  DECFSZ 21,F
022C:  GOTO   228
.................... output_low(led13);//Pone en bajo a led 
022D:  BSF    03.5
022E:  BCF    06.7
022F:  BCF    03.5
0230:  BCF    06.7
.................... retardo;//Demora 
0231:  MOVLW  02
0232:  MOVWF  21
0233:  MOVLW  FA
0234:  MOVWF  22
0235:  CALL   004
0236:  DECFSZ 21,F
0237:  GOTO   233
.................... output_low(led14);//Pone en bajo a led 
0238:  BCF    20.0
0239:  MOVF   20,W
023A:  BSF    03.5
023B:  MOVWF  07
023C:  BCF    03.5
023D:  BCF    07.0
.................... retardo;//Demora 
023E:  MOVLW  02
023F:  MOVWF  21
0240:  MOVLW  FA
0241:  MOVWF  22
0242:  CALL   004
0243:  DECFSZ 21,F
0244:  GOTO   240
.................... output_low(led15);//Pone en bajo a led 
0245:  BCF    20.1
0246:  MOVF   20,W
0247:  BSF    03.5
0248:  MOVWF  07
0249:  BCF    03.5
024A:  BCF    07.1
.................... retardo;//Demora 
024B:  MOVLW  02
024C:  MOVWF  21
024D:  MOVLW  FA
024E:  MOVWF  22
024F:  CALL   004
0250:  DECFSZ 21,F
0251:  GOTO   24D
.................... output_low(led16);//Pone en bajo a led 
0252:  BCF    20.2
0253:  MOVF   20,W
0254:  BSF    03.5
0255:  MOVWF  07
0256:  BCF    03.5
0257:  BCF    07.2
.................... retardo;//Demora 
0258:  MOVLW  02
0259:  MOVWF  21
025A:  MOVLW  FA
025B:  MOVWF  22
025C:  CALL   004
025D:  DECFSZ 21,F
025E:  GOTO   25A
.................... output_low(led17);//Pone en bajo a led 
025F:  BCF    20.3
0260:  MOVF   20,W
0261:  BSF    03.5
0262:  MOVWF  07
0263:  BCF    03.5
0264:  BCF    07.3
.................... retardo;//Demora 
0265:  MOVLW  02
0266:  MOVWF  21
0267:  MOVLW  FA
0268:  MOVWF  22
0269:  CALL   004
026A:  DECFSZ 21,F
026B:  GOTO   267
.................... output_low(led18);//Pone en bajo a led 
026C:  BCF    20.4
026D:  MOVF   20,W
026E:  BSF    03.5
026F:  MOVWF  07
0270:  BCF    03.5
0271:  BCF    07.4
.................... retardo;//Demora 
0272:  MOVLW  02
0273:  MOVWF  21
0274:  MOVLW  FA
0275:  MOVWF  22
0276:  CALL   004
0277:  DECFSZ 21,F
0278:  GOTO   274
.................... output_low(led19);//Pone en bajo a led 
0279:  BCF    20.5
027A:  MOVF   20,W
027B:  BSF    03.5
027C:  MOVWF  07
027D:  BCF    03.5
027E:  BCF    07.5
.................... retardo;//Demora 
027F:  MOVLW  02
0280:  MOVWF  21
0281:  MOVLW  FA
0282:  MOVWF  22
0283:  CALL   004
0284:  DECFSZ 21,F
0285:  GOTO   281
.................... output_low(led20);//Pone en bajo a led 
0286:  BCF    20.6
0287:  MOVF   20,W
0288:  BSF    03.5
0289:  MOVWF  07
028A:  BCF    03.5
028B:  BCF    07.6
.................... retardo;//Demora 
028C:  MOVLW  02
028D:  MOVWF  21
028E:  MOVLW  FA
028F:  MOVWF  22
0290:  CALL   004
0291:  DECFSZ 21,F
0292:  GOTO   28E
.................... output_low(led21);//Pone en bajo a led 
0293:  BCF    20.7
0294:  MOVF   20,W
0295:  BSF    03.5
0296:  MOVWF  07
0297:  BCF    03.5
0298:  BCF    07.7
.................... retardo;//Demora 
0299:  MOVLW  02
029A:  MOVWF  21
029B:  MOVLW  FA
029C:  MOVWF  22
029D:  CALL   004
029E:  DECFSZ 21,F
029F:  GOTO   29B
.................... output_low(led22);//Pone en bajo a led 
02A0:  BSF    03.5
02A1:  BCF    08.0
02A2:  BCF    03.5
02A3:  BCF    08.0
.................... retardo;//Demora 
02A4:  MOVLW  02
02A5:  MOVWF  21
02A6:  MOVLW  FA
02A7:  MOVWF  22
02A8:  CALL   004
02A9:  DECFSZ 21,F
02AA:  GOTO   2A6
.................... output_low(led23);//Pone en bajo a led 
02AB:  BSF    03.5
02AC:  BCF    08.1
02AD:  BCF    03.5
02AE:  BCF    08.1
.................... retardo;//Demora 
02AF:  MOVLW  02
02B0:  MOVWF  21
02B1:  MOVLW  FA
02B2:  MOVWF  22
02B3:  CALL   004
02B4:  DECFSZ 21,F
02B5:  GOTO   2B1
.................... output_low(led24);//Pone en bajo a led 
02B6:  BSF    03.5
02B7:  BCF    08.2
02B8:  BCF    03.5
02B9:  BCF    08.2
.................... retardo;//Demora 
02BA:  MOVLW  02
02BB:  MOVWF  21
02BC:  MOVLW  FA
02BD:  MOVWF  22
02BE:  CALL   004
02BF:  DECFSZ 21,F
02C0:  GOTO   2BC
.................... output_low(led25);//Pone en bajo a led 
02C1:  BSF    03.5
02C2:  BCF    08.3
02C3:  BCF    03.5
02C4:  BCF    08.3
.................... retardo;//Demora 
02C5:  MOVLW  02
02C6:  MOVWF  21
02C7:  MOVLW  FA
02C8:  MOVWF  22
02C9:  CALL   004
02CA:  DECFSZ 21,F
02CB:  GOTO   2C7
.................... output_low(led26);//Pone en bajo a led 
02CC:  BSF    03.5
02CD:  BCF    08.4
02CE:  BCF    03.5
02CF:  BCF    08.4
.................... retardo;//Demora 
02D0:  MOVLW  02
02D1:  MOVWF  21
02D2:  MOVLW  FA
02D3:  MOVWF  22
02D4:  CALL   004
02D5:  DECFSZ 21,F
02D6:  GOTO   2D2
.................... output_low(led27);//Pone en bajo a led 
02D7:  BSF    03.5
02D8:  BCF    08.5
02D9:  BCF    03.5
02DA:  BCF    08.5
.................... retardo;//Demora 
02DB:  MOVLW  02
02DC:  MOVWF  21
02DD:  MOVLW  FA
02DE:  MOVWF  22
02DF:  CALL   004
02E0:  DECFSZ 21,F
02E1:  GOTO   2DD
.................... output_low(led28);//Pone en bajo a led 
02E2:  BSF    03.5
02E3:  BCF    08.6
02E4:  BCF    03.5
02E5:  BCF    08.6
.................... retardo;//Demora 
02E6:  MOVLW  02
02E7:  MOVWF  21
02E8:  MOVLW  FA
02E9:  MOVWF  22
02EA:  CALL   004
02EB:  DECFSZ 21,F
02EC:  GOTO   2E8
.................... output_low(led29);//Pone en bajo a led 
02ED:  BSF    03.5
02EE:  BCF    08.7
02EF:  BCF    03.5
02F0:  BCF    08.7
.................... retardo;//Demora 
02F1:  MOVLW  02
02F2:  MOVWF  21
02F3:  MOVLW  FA
02F4:  MOVWF  22
02F5:  CALL   004
02F6:  DECFSZ 21,F
02F7:  GOTO   2F3
.................... output_low(led30);//Pone en bajo a led 
02F8:  BSF    03.5
02F9:  BCF    09.0
02FA:  BCF    03.5
02FB:  BCF    09.0
.................... retardo;//Demora 
02FC:  MOVLW  02
02FD:  MOVWF  21
02FE:  MOVLW  FA
02FF:  MOVWF  22
0300:  CALL   004
0301:  DECFSZ 21,F
0302:  GOTO   2FE
.................... output_low(led31);//Pone en bajo a led 
0303:  BSF    03.5
0304:  BCF    09.1
0305:  BCF    03.5
0306:  BCF    09.1
.................... retardo;//Demora 
0307:  MOVLW  02
0308:  MOVWF  21
0309:  MOVLW  FA
030A:  MOVWF  22
030B:  CALL   004
030C:  DECFSZ 21,F
030D:  GOTO   309
.................... output_low(led32);//Pone en bajo a led 
030E:  BSF    03.5
030F:  BCF    09.2
0310:  BCF    03.5
0311:  BCF    09.2
.................... retardo;//Demora 
0312:  MOVLW  02
0313:  MOVWF  21
0314:  MOVLW  FA
0315:  MOVWF  22
0316:  CALL   004
0317:  DECFSZ 21,F
0318:  GOTO   314
.................... goto inicio;//Regresa a la etiqueta inicio 
0319:  GOTO   023
.................... } 
031A:  SLEEP

Configuration Fuses:
   Word  1: 3F71   XT NOWDT PUT BROWNOUT NOLVP NOCPD NOWRT NODEBUG NOPROTECT
